target datalayout = "e-m:e-p270:32:32-p271:32:32-p272:64:64-i64:64-i128:128-f80:128-n8:16:32:64-S128"
target triple = "x86_64-pc-linux-gnu"

%struct.luaL_Buffer = type { ptr, i32, ptr, [8192 x i8] }

; Function Attrs: nounwind uwtable
define internal i32 @str_reverse(ptr noundef %0) #0 {
  %2 = alloca ptr, align 8
  %3 = alloca i64, align 8
  %4 = alloca %struct.luaL_Buffer, align 8
  %5 = alloca ptr, align 8
  store ptr %0, ptr %2, align 8, !tbaa !4
  call void @llvm.lifetime.start.p0(i64 8, ptr %3) #8
  call void @llvm.lifetime.start.p0(i64 8216, ptr %4) #8
  call void @llvm.lifetime.start.p0(i64 8, ptr %5) #8
  %6 = load ptr, ptr %2, align 8, !tbaa !4
  %7 = call ptr @luaL_checklstring(ptr noundef %6, i32 noundef 1, ptr noundef %3)
  store ptr %7, ptr %5, align 8, !tbaa !9
  %8 = load ptr, ptr %2, align 8, !tbaa !4
  call void @luaL_buffinit(ptr noundef %8, ptr noundef %4)
  br label %9

9:                                                ; preds = %22, %1
  %10 = load i64, ptr %3, align 8, !tbaa !11
  %11 = add i64 %10, -1
  store i64 %11, ptr %3, align 8, !tbaa !11
  %12 = icmp ne i64 %10, 0
  br i1 %12, label %13, label %30

13:                                               ; preds = %9
  %14 = getelementptr inbounds nuw %struct.luaL_Buffer, ptr %4, i32 0, i32 0
  %15 = load ptr, ptr %14, align 8, !tbaa !18
  %16 = getelementptr inbounds nuw %struct.luaL_Buffer, ptr %4, i32 0, i32 3
  %17 = getelementptr inbounds [8192 x i8], ptr %16, i64 0, i64 0
  %18 = getelementptr inbounds i8, ptr %17, i64 8192
  %19 = icmp ult ptr %15, %18
  br i1 %19, label %22, label %20

20:                                               ; preds = %13
  %21 = call ptr @luaL_prepbuffer(ptr noundef %4)
  br label %22

22:                                               ; preds = %20, %13
  %23 = load ptr, ptr %5, align 8, !tbaa !9
  %24 = load i64, ptr %3, align 8, !tbaa !11
  %25 = getelementptr inbounds nuw i8, ptr %23, i64 %24
  %26 = load i8, ptr %25, align 1, !tbaa !15
  %27 = getelementptr inbounds nuw %struct.luaL_Buffer, ptr %4, i32 0, i32 0
  %28 = load ptr, ptr %27, align 8, !tbaa !18
  %29 = getelementptr inbounds nuw i8, ptr %28, i32 1
  store ptr %29, ptr %27, align 8, !tbaa !18
  store i8 %26, ptr %28, align 1, !tbaa !15
  br label %9, !llvm.loop !32

30:                                               ; preds = %9
  call void @luaL_pushresult(ptr noundef %4)
  call void @llvm.lifetime.end.p0(i64 8, ptr %5) #8
  call void @llvm.lifetime.end.p0(i64 8216, ptr %4) #8
  call void @llvm.lifetime.end.p0(i64 8, ptr %3) #8
  ret i32 1
}