; Function Attrs: nounwind uwtable
define internal noundef i32 @str_reverse(ptr noundef %0) #0 {
  %2 = alloca i64, align 8
  %3 = alloca %struct.luaL_Buffer, align 8
  call void @llvm.lifetime.start.p0(i64 8, ptr nonnull %2) #10
  call void @llvm.lifetime.start.p0(i64 8216, ptr nonnull %3) #10
  %4 = call ptr @luaL_checklstring(ptr noundef %0, i32 noundef 1, ptr noundef nonnull %2) #10
  call void @luaL_buffinit(ptr noundef %0, ptr noundef nonnull %3) #10
  %5 = load i64, ptr %2, align 8, !tbaa !4
  %6 = add i64 %5, -1
  store i64 %6, ptr %2, align 8, !tbaa !4
  %.not3 = icmp eq i64 %5, 0
  br i1 %.not3, label %._crit_edge, label %.lr.ph

.lr.ph:                                           ; preds = %1
  %7 = getelementptr inbounds nuw i8, ptr %3, i64 8216
  br label %8

8:                                                ; preds = %.lr.ph, %14
  %9 = phi i64 [ %6, %.lr.ph ], [ %21, %14 ]
  %10 = load ptr, ptr %3, align 8, !tbaa !11
  %11 = icmp ult ptr %10, %7
  br i1 %11, label %14, label %12

12:                                               ; preds = %8
  %13 = call ptr @luaL_prepbuffer(ptr noundef nonnull %3) #10
  %.pre = load i64, ptr %2, align 8, !tbaa !4
  %.pre4 = load ptr, ptr %3, align 8, !tbaa !11
  br label %14

14:                                               ; preds = %12, %8
  %15 = phi ptr [ %.pre4, %12 ], [ %10, %8 ]
  %16 = phi i64 [ %.pre, %12 ], [ %9, %8 ]
  %17 = getelementptr inbounds nuw i8, ptr %4, i64 %16
  %18 = load i8, ptr %17, align 1, !tbaa !8
  %19 = getelementptr inbounds nuw i8, ptr %15, i64 1
  store ptr %19, ptr %3, align 8, !tbaa !11
  store i8 %18, ptr %15, align 1, !tbaa !8
  %20 = load i64, ptr %2, align 8, !tbaa !4
  %21 = add i64 %20, -1
  store i64 %21, ptr %2, align 8, !tbaa !4
  %.not = icmp eq i64 %20, 0
  br i1 %.not, label %._crit_edge, label %8, !llvm.loop !40

._crit_edge:                                      ; preds = %14, %1
  call void @luaL_pushresult(ptr noundef nonnull %3) #10
  call void @llvm.lifetime.end.p0(i64 8216, ptr nonnull %3) #10
  call void @llvm.lifetime.end.p0(i64 8, ptr nonnull %2) #10
  ret i32 1
}